; Function Attrs: inlinehint nounwind uwtable
define internal fastcc void @arena_sdalloc_no_tcache(ptr noundef %0, ptr noundef %1, i64 noundef %2) unnamed_addr #9 {
  %4 = icmp ult i64 %2, 4097
  br i1 %4, label %5, label %11, !prof !4

5:                                                ; preds = %3
  %6 = add nuw nsw i64 %2, 7
  %7 = lshr i64 %6, 3
  %8 = getelementptr inbounds nuw [0 x i8], ptr @je_sz_size2index_tab, i64 0, i64 %7
  %9 = load i8, ptr %8, align 1, !tbaa !5
  %10 = zext i8 %9 to i32
  br label %sz_size2index.exit

11:                                               ; preds = %3
  %12 = icmp ugt i64 %2, 8070450532247928832
  br i1 %12, label %sz_size2index.exit.thread, label %13, !prof !10

13:                                               ; preds = %11
  %14 = shl nuw i64 %2, 1
  %15 = add i64 %14, -1
  %16 = tail call range(i64 0, 65) i64 @llvm.ctlz.i64(i64 range(i64 8193, -2305843009213693952) %15, i1 true)
  %17 = trunc nuw nsw i64 %16 to i32
  %18 = shl nuw nsw i32 %17, 2
  %19 = xor i32 %18, 252
  %20 = sub nuw nsw i64 60, %16
  %21 = shl nsw i64 -1, %20
  %22 = add nsw i64 %2, -1
  %23 = and i64 %21, %22
  %24 = lshr i64 %23, %20
  %25 = trunc i64 %24 to i32
  %26 = and i32 %25, 3
  %27 = add nsw i32 %19, -23
  %28 = add nuw nsw i32 %27, %26
  br label %sz_size2index.exit

sz_size2index.exit:                               ; preds = %13, %5
  %.0.i = phi i32 [ %10, %5 ], [ %28, %13 ]
  %29 = icmp samesign ult i32 %.0.i, 36
  br i1 %29, label %30, label %sz_size2index.exit.thread, !prof !139

30:                                               ; preds = %sz_size2index.exit
  tail call void @je_arena_dalloc_small(ptr noundef %0, ptr noundef %1) #11
  br label %31

sz_size2index.exit.thread:                        ; preds = %11, %sz_size2index.exit
  tail call fastcc void @arena_dalloc_large_no_tcache(ptr noundef %0, ptr noundef %1)
  br label %31

31:                                               ; preds = %sz_size2index.exit.thread, %30
  ret void
}